target datalayout = "e-m:e-p270:32:32-p271:32:32-p272:64:64-i64:64-i128:128-f80:128-n8:16:32:64-S128"
target triple = "x86_64-pc-linux-gnu"

@hf_gsm_a_bssmap_call_id = internal global i32 0, align 4
@hf_gsm_a_bssmap_all_call_identifiers_resources_released = internal global i32 0, align 4

; Function Attrs: null_pointer_is_valid sspstrong uwtable
define internal zeroext i16 @be_call_id_lst(ptr noundef %0, ptr noundef %1, ptr noundef %2, i32 noundef %3, i32 noundef %4, ptr noundef %5, i32 noundef %6) #1 {
  %8 = alloca ptr, align 8
  %9 = alloca ptr, align 8
  %10 = alloca ptr, align 8
  %11 = alloca i32, align 4
  %12 = alloca i32, align 4
  %13 = alloca ptr, align 8
  %14 = alloca i32, align 4
  %15 = alloca i32, align 4
  store ptr %0, ptr %8, align 8
  store ptr %1, ptr %9, align 8
  store ptr %2, ptr %10, align 8
  store i32 %3, ptr %11, align 4
  store i32 %4, ptr %12, align 4
  store ptr %5, ptr %13, align 8
  store i32 %6, ptr %14, align 4
  call void @llvm.lifetime.start.p0(i64 4, ptr %15) #5
  %16 = load i32, ptr %11, align 4
  store i32 %16, ptr %15, align 4
  %17 = load i32, ptr %12, align 4
  %18 = icmp eq i32 %17, 0
  br i1 %18, label %19, label %26

19:                                               ; preds = %7
  %20 = load ptr, ptr %9, align 8
  %21 = load i32, ptr @hf_gsm_a_bssmap_all_call_identifiers_resources_released, align 4
  %22 = load ptr, ptr %8, align 8
  %23 = load i32, ptr %15, align 4
  %24 = load i32, ptr %12, align 4
  %25 = call ptr @proto_tree_add_item(ptr noundef %20, i32 noundef %21, ptr noundef %22, i32 noundef %23, i32 noundef %24, i32 noundef 0)
  br label %26

26:                                               ; preds = %19, %7
  br label %27

27:                                               ; preds = %33, %26
  %28 = load i32, ptr %15, align 4
  %29 = load i32, ptr %11, align 4
  %30 = sub i32 %28, %29
  %31 = load i32, ptr %12, align 4
  %32 = icmp ult i32 %30, %31
  br i1 %32, label %33, label %41

33:                                               ; preds = %27
  %34 = load ptr, ptr %9, align 8
  %35 = load i32, ptr @hf_gsm_a_bssmap_call_id, align 4
  %36 = load ptr, ptr %8, align 8
  %37 = load i32, ptr %15, align 4
  %38 = call ptr @proto_tree_add_item(ptr noundef %34, i32 noundef %35, ptr noundef %36, i32 noundef %37, i32 noundef 4, i32 noundef -2147483648)
  %39 = load i32, ptr %15, align 4
  %40 = add i32 %39, 4
  store i32 %40, ptr %15, align 4
  br label %27, !llvm.loop !18

41:                                               ; preds = %27
  %42 = load i32, ptr %12, align 4
  %43 = trunc i32 %42 to i16
  call void @llvm.lifetime.end.p0(i64 4, ptr %15) #5
  ret i16 %43
}