; Function Attrs: null_pointer_is_valid sspstrong uwtable
define internal noundef zeroext i16 @be_call_id_lst(ptr noundef %0, ptr noundef %1, ptr readnone captures(none) %2, i32 noundef %3, i32 noundef %4, ptr readnone captures(none) %5, i32 %6) #1 {
  %8 = icmp eq i32 %4, 0
  br i1 %8, label %.thread, label %.lr.ph

.thread:                                          ; preds = %7
  %9 = load i32, ptr @hf_gsm_a_bssmap_all_call_identifiers_resources_released, align 4
  %10 = tail call ptr @proto_tree_add_item(ptr noundef %1, i32 noundef %9, ptr noundef %0, i32 noundef %3, i32 noundef 0, i32 noundef 0)
  br label %._crit_edge

.lr.ph:                                           ; preds = %7, %.lr.ph
  %.014 = phi i32 [ %13, %.lr.ph ], [ %3, %7 ]
  %11 = load i32, ptr @hf_gsm_a_bssmap_call_id, align 4
  %12 = tail call ptr @proto_tree_add_item(ptr noundef %1, i32 noundef %11, ptr noundef %0, i32 noundef %.014, i32 noundef 4, i32 noundef -2147483648)
  %13 = add i32 %.014, 4
  %14 = sub i32 %13, %3
  %15 = icmp ult i32 %14, %4
  br i1 %15, label %.lr.ph, label %._crit_edge, !llvm.loop !16

._crit_edge:                                      ; preds = %.lr.ph, %.thread
  %16 = trunc i32 %4 to i16
  ret i16 %16
}